target datalayout = "e-m:e-p270:32:32-p271:32:32-p272:64:64-i64:64-i128:128-f80:128-n8:16:32:64-S128"
target triple = "x86_64-unknown-linux-gnu"

; Function Attrs: nounwind uwtable
define hidden i64 @bn_mul_words(ptr noundef %rp, ptr noundef %ap, i32 noundef %num, i64 noundef %w) #0 {
entry:
  %retval = alloca i64, align 8
  %rp.addr = alloca ptr, align 8
  %ap.addr = alloca ptr, align 8
  %num.addr = alloca i32, align 4
  %w.addr = alloca i64, align 8
  %c1 = alloca i64, align 8
  %high = alloca i64, align 8
  %low = alloca i64, align 8
  %high6 = alloca i64, align 8
  %low7 = alloca i64, align 8
  %high16 = alloca i64, align 8
  %low17 = alloca i64, align 8
  %high26 = alloca i64, align 8
  %low27 = alloca i64, align 8
  %high39 = alloca i64, align 8
  %low40 = alloca i64, align 8
  %high52 = alloca i64, align 8
  %low53 = alloca i64, align 8
  %high66 = alloca i64, align 8
  %low67 = alloca i64, align 8
  store ptr %rp, ptr %rp.addr, align 8
  store ptr %ap, ptr %ap.addr, align 8
  store i32 %num, ptr %num.addr, align 4
  store i64 %w, ptr %w.addr, align 8
  store i64 0, ptr %c1, align 8
  %0 = load i32, ptr %num.addr, align 4
  %cmp = icmp sle i32 %0, 0
  br i1 %cmp, label %if.then, label %if.end

if.then:                                          ; preds = %entry
  %1 = load i64, ptr %c1, align 8
  store i64 %1, ptr %retval, align 8
  br label %return

if.end:                                           ; preds = %entry
  br label %while.cond

while.cond:                                       ; preds = %do.end34, %if.end
  %2 = load i32, ptr %num.addr, align 4
  %and = and i32 %2, -4
  %tobool = icmp ne i32 %and, 0
  br i1 %tobool, label %while.body, label %while.end

while.body:                                       ; preds = %while.cond
  br label %do.body

do.body:                                          ; preds = %while.body
  %3 = load i64, ptr %w.addr, align 8
  %4 = load ptr, ptr %ap.addr, align 8
  %arrayidx = getelementptr inbounds i64, ptr %4, i64 0
  %5 = load i64, ptr %arrayidx, align 8
  %6 = call { i64, i64 } asm "mulq $3", "={ax},={dx},{ax},imr,~{cc},~{dirflag},~{fpsr},~{flags}"(i64 %3, i64 %5) #1, !srcloc !30
  %asmresult = extractvalue { i64, i64 } %6, 0
  %asmresult1 = extractvalue { i64, i64 } %6, 1
  store i64 %asmresult, ptr %low, align 8
  store i64 %asmresult1, ptr %high, align 8
  %7 = load i64, ptr %c1, align 8
  %8 = load i64, ptr %high, align 8
  %9 = load i64, ptr %low, align 8
  %10 = call { i64, i64 } asm "addq $2,$0; adcq $3,$1", "=r,={dx},{ax},imr,0,1,~{cc},~{dirflag},~{fpsr},~{flags}"(i64 %9, i32 0, i64 %7, i64 %8) #1, !srcloc !31
  %asmresult2 = extractvalue { i64, i64 } %10, 0
  %asmresult3 = extractvalue { i64, i64 } %10, 1
  store i64 %asmresult2, ptr %c1, align 8
  store i64 %asmresult3, ptr %high, align 8
  %11 = load i64, ptr %c1, align 8
  %12 = load ptr, ptr %rp.addr, align 8
  %arrayidx4 = getelementptr inbounds i64, ptr %12, i64 0
  store i64 %11, ptr %arrayidx4, align 8
  %13 = load i64, ptr %high, align 8
  store i64 %13, ptr %c1, align 8
  br label %do.end

do.end:                                           ; preds = %do.body
  br label %do.body5

do.body5:                                         ; preds = %do.end
  %14 = load i64, ptr %w.addr, align 8
  %15 = load ptr, ptr %ap.addr, align 8
  %arrayidx8 = getelementptr inbounds i64, ptr %15, i64 1
  %16 = load i64, ptr %arrayidx8, align 8
  %17 = call { i64, i64 } asm "mulq $3", "={ax},={dx},{ax},imr,~{cc},~{dirflag},~{fpsr},~{flags}"(i64 %14, i64 %16) #1, !srcloc !32
  %asmresult9 = extractvalue { i64, i64 } %17, 0
  %asmresult10 = extractvalue { i64, i64 } %17, 1
  store i64 %asmresult9, ptr %low7, align 8
  store i64 %asmresult10, ptr %high6, align 8
  %18 = load i64, ptr %c1, align 8
  %19 = load i64, ptr %high6, align 8
  %20 = load i64, ptr %low7, align 8
  %21 = call { i64, i64 } asm "addq $2,$0; adcq $3,$1", "=r,={dx},{ax},imr,0,1,~{cc},~{dirflag},~{fpsr},~{flags}"(i64 %20, i32 0, i64 %18, i64 %19) #1, !srcloc !33
  %asmresult11 = extractvalue { i64, i64 } %21, 0
  %asmresult12 = extractvalue { i64, i64 } %21, 1
  store i64 %asmresult11, ptr %c1, align 8
  store i64 %asmresult12, ptr %high6, align 8
  %22 = load i64, ptr %c1, align 8
  %23 = load ptr, ptr %rp.addr, align 8
  %arrayidx13 = getelementptr inbounds i64, ptr %23, i64 1
  store i64 %22, ptr %arrayidx13, align 8
  %24 = load i64, ptr %high6, align 8
  store i64 %24, ptr %c1, align 8
  br label %do.end14

do.end14:                                         ; preds = %do.body5
  br label %do.body15

do.body15:                                        ; preds = %do.end14
  %25 = load i64, ptr %w.addr, align 8
  %26 = load ptr, ptr %ap.addr, align 8
  %arrayidx18 = getelementptr inbounds i64, ptr %26, i64 2
  %27 = load i64, ptr %arrayidx18, align 8
  %28 = call { i64, i64 } asm "mulq $3", "={ax},={dx},{ax},imr,~{cc},~{dirflag},~{fpsr},~{flags}"(i64 %25, i64 %27) #1, !srcloc !34
  %asmresult19 = extractvalue { i64, i64 } %28, 0
  %asmresult20 = extractvalue { i64, i64 } %28, 1
  store i64 %asmresult19, ptr %low17, align 8
  store i64 %asmresult20, ptr %high16, align 8
  %29 = load i64, ptr %c1, align 8
  %30 = load i64, ptr %high16, align 8
  %31 = load i64, ptr %low17, align 8
  %32 = call { i64, i64 } asm "addq $2,$0; adcq $3,$1", "=r,={dx},{ax},imr,0,1,~{cc},~{dirflag},~{fpsr},~{flags}"(i64 %31, i32 0, i64 %29, i64 %30) #1, !srcloc !35
  %asmresult21 = extractvalue { i64, i64 } %32, 0
  %asmresult22 = extractvalue { i64, i64 } %32, 1
  store i64 %asmresult21, ptr %c1, align 8
  store i64 %asmresult22, ptr %high16, align 8
  %33 = load i64, ptr %c1, align 8
  %34 = load ptr, ptr %rp.addr, align 8
  %arrayidx23 = getelementptr inbounds i64, ptr %34, i64 2
  store i64 %33, ptr %arrayidx23, align 8
  %35 = load i64, ptr %high16, align 8
  store i64 %35, ptr %c1, align 8
  br label %do.end24

do.end24:                                         ; preds = %do.body15
  br label %do.body25

do.body25:                                        ; preds = %do.end24
  %36 = load i64, ptr %w.addr, align 8
  %37 = load ptr, ptr %ap.addr, align 8
  %arrayidx28 = getelementptr inbounds i64, ptr %37, i64 3
  %38 = load i64, ptr %arrayidx28, align 8
  %39 = call { i64, i64 } asm "mulq $3", "={ax},={dx},{ax},imr,~{cc},~{dirflag},~{fpsr},~{flags}"(i64 %36, i64 %38) #1, !srcloc !36
  %asmresult29 = extractvalue { i64, i64 } %39, 0
  %asmresult30 = extractvalue { i64, i64 } %39, 1
  store i64 %asmresult29, ptr %low27, align 8
  store i64 %asmresult30, ptr %high26, align 8
  %40 = load i64, ptr %c1, align 8
  %41 = load i64, ptr %high26, align 8
  %42 = load i64, ptr %low27, align 8
  %43 = call { i64, i64 } asm "addq $2,$0; adcq $3,$1", "=r,={dx},{ax},imr,0,1,~{cc},~{dirflag},~{fpsr},~{flags}"(i64 %42, i32 0, i64 %40, i64 %41) #1, !srcloc !37
  %asmresult31 = extractvalue { i64, i64 } %43, 0
  %asmresult32 = extractvalue { i64, i64 } %43, 1
  store i64 %asmresult31, ptr %c1, align 8
  store i64 %asmresult32, ptr %high26, align 8
  %44 = load i64, ptr %c1, align 8
  %45 = load ptr, ptr %rp.addr, align 8
  %arrayidx33 = getelementptr inbounds i64, ptr %45, i64 3
  store i64 %44, ptr %arrayidx33, align 8
  %46 = load i64, ptr %high26, align 8
  store i64 %46, ptr %c1, align 8
  br label %do.end34

do.end34:                                         ; preds = %do.body25
  %47 = load ptr, ptr %ap.addr, align 8
  %add.ptr = getelementptr inbounds i64, ptr %47, i64 4
  store ptr %add.ptr, ptr %ap.addr, align 8
  %48 = load ptr, ptr %rp.addr, align 8
  %add.ptr35 = getelementptr inbounds i64, ptr %48, i64 4
  store ptr %add.ptr35, ptr %rp.addr, align 8
  %49 = load i32, ptr %num.addr, align 4
  %sub = sub nsw i32 %49, 4
  store i32 %sub, ptr %num.addr, align 4
  br label %while.cond, !llvm.loop !38

while.end:                                        ; preds = %while.cond
  %50 = load i32, ptr %num.addr, align 4
  %tobool36 = icmp ne i32 %50, 0
  br i1 %tobool36, label %if.then37, label %if.end75

if.then37:                                        ; preds = %while.end
  br label %do.body38

do.body38:                                        ; preds = %if.then37
  %51 = load i64, ptr %w.addr, align 8
  %52 = load ptr, ptr %ap.addr, align 8
  %arrayidx41 = getelementptr inbounds i64, ptr %52, i64 0
  %53 = load i64, ptr %arrayidx41, align 8
  %54 = call { i64, i64 } asm "mulq $3", "={ax},={dx},{ax},imr,~{cc},~{dirflag},~{fpsr},~{flags}"(i64 %51, i64 %53) #1, !srcloc !39
  %asmresult42 = extractvalue { i64, i64 } %54, 0
  %asmresult43 = extractvalue { i64, i64 } %54, 1
  store i64 %asmresult42, ptr %low40, align 8
  store i64 %asmresult43, ptr %high39, align 8
  %55 = load i64, ptr %c1, align 8
  %56 = load i64, ptr %high39, align 8
  %57 = load i64, ptr %low40, align 8
  %58 = call { i64, i64 } asm "addq $2,$0; adcq $3,$1", "=r,={dx},{ax},imr,0,1,~{cc},~{dirflag},~{fpsr},~{flags}"(i64 %57, i32 0, i64 %55, i64 %56) #1, !srcloc !40
  %asmresult44 = extractvalue { i64, i64 } %58, 0
  %asmresult45 = extractvalue { i64, i64 } %58, 1
  store i64 %asmresult44, ptr %c1, align 8
  store i64 %asmresult45, ptr %high39, align 8
  %59 = load i64, ptr %c1, align 8
  %60 = load ptr, ptr %rp.addr, align 8
  %arrayidx46 = getelementptr inbounds i64, ptr %60, i64 0
  store i64 %59, ptr %arrayidx46, align 8
  %61 = load i64, ptr %high39, align 8
  store i64 %61, ptr %c1, align 8
  br label %do.end47

do.end47:                                         ; preds = %do.body38
  %62 = load i32, ptr %num.addr, align 4
  %dec = add nsw i32 %62, -1
  store i32 %dec, ptr %num.addr, align 4
  %cmp48 = icmp eq i32 %dec, 0
  br i1 %cmp48, label %if.then49, label %if.end50

if.then49:                                        ; preds = %do.end47
  %63 = load i64, ptr %c1, align 8
  store i64 %63, ptr %retval, align 8
  br label %return

if.end50:                                         ; preds = %do.end47
  br label %do.body51

do.body51:                                        ; preds = %if.end50
  %64 = load i64, ptr %w.addr, align 8
  %65 = load ptr, ptr %ap.addr, align 8
  %arrayidx54 = getelementptr inbounds i64, ptr %65, i64 1
  %66 = load i64, ptr %arrayidx54, align 8
  %67 = call { i64, i64 } asm "mulq $3", "={ax},={dx},{ax},imr,~{cc},~{dirflag},~{fpsr},~{flags}"(i64 %64, i64 %66) #1, !srcloc !41
  %asmresult55 = extractvalue { i64, i64 } %67, 0
  %asmresult56 = extractvalue { i64, i64 } %67, 1
  store i64 %asmresult55, ptr %low53, align 8
  store i64 %asmresult56, ptr %high52, align 8
  %68 = load i64, ptr %c1, align 8
  %69 = load i64, ptr %high52, align 8
  %70 = load i64, ptr %low53, align 8
  %71 = call { i64, i64 } asm "addq $2,$0; adcq $3,$1", "=r,={dx},{ax},imr,0,1,~{cc},~{dirflag},~{fpsr},~{flags}"(i64 %70, i32 0, i64 %68, i64 %69) #1, !srcloc !42
  %asmresult57 = extractvalue { i64, i64 } %71, 0
  %asmresult58 = extractvalue { i64, i64 } %71, 1
  store i64 %asmresult57, ptr %c1, align 8
  store i64 %asmresult58, ptr %high52, align 8
  %72 = load i64, ptr %c1, align 8
  %73 = load ptr, ptr %rp.addr, align 8
  %arrayidx59 = getelementptr inbounds i64, ptr %73, i64 1
  store i64 %72, ptr %arrayidx59, align 8
  %74 = load i64, ptr %high52, align 8
  store i64 %74, ptr %c1, align 8
  br label %do.end60

do.end60:                                         ; preds = %do.body51
  %75 = load i32, ptr %num.addr, align 4
  %dec61 = add nsw i32 %75, -1
  store i32 %dec61, ptr %num.addr, align 4
  %cmp62 = icmp eq i32 %dec61, 0
  br i1 %cmp62, label %if.then63, label %if.end64

if.then63:                                        ; preds = %do.end60
  %76 = load i64, ptr %c1, align 8
  store i64 %76, ptr %retval, align 8
  br label %return

if.end64:                                         ; preds = %do.end60
  br label %do.body65

do.body65:                                        ; preds = %if.end64
  %77 = load i64, ptr %w.addr, align 8
  %78 = load ptr, ptr %ap.addr, align 8
  %arrayidx68 = getelementptr inbounds i64, ptr %78, i64 2
  %79 = load i64, ptr %arrayidx68, align 8
  %80 = call { i64, i64 } asm "mulq $3", "={ax},={dx},{ax},imr,~{cc},~{dirflag},~{fpsr},~{flags}"(i64 %77, i64 %79) #1, !srcloc !43
  %asmresult69 = extractvalue { i64, i64 } %80, 0
  %asmresult70 = extractvalue { i64, i64 } %80, 1
  store i64 %asmresult69, ptr %low67, align 8
  store i64 %asmresult70, ptr %high66, align 8
  %81 = load i64, ptr %c1, align 8
  %82 = load i64, ptr %high66, align 8
  %83 = load i64, ptr %low67, align 8
  %84 = call { i64, i64 } asm "addq $2,$0; adcq $3,$1", "=r,={dx},{ax},imr,0,1,~{cc},~{dirflag},~{fpsr},~{flags}"(i64 %83, i32 0, i64 %81, i64 %82) #1, !srcloc !44
  %asmresult71 = extractvalue { i64, i64 } %84, 0
  %asmresult72 = extractvalue { i64, i64 } %84, 1
  store i64 %asmresult71, ptr %c1, align 8
  store i64 %asmresult72, ptr %high66, align 8
  %85 = load i64, ptr %c1, align 8
  %86 = load ptr, ptr %rp.addr, align 8
  %arrayidx73 = getelementptr inbounds i64, ptr %86, i64 2
  store i64 %85, ptr %arrayidx73, align 8
  %87 = load i64, ptr %high66, align 8
  store i64 %87, ptr %c1, align 8
  br label %do.end74

do.end74:                                         ; preds = %do.body65
  br label %if.end75

if.end75:                                         ; preds = %do.end74, %while.end
  %88 = load i64, ptr %c1, align 8
  store i64 %88, ptr %retval, align 8
  br label %return

return:                                           ; preds = %if.end75, %if.then63, %if.then49, %if.then
  %89 = load i64, ptr %retval, align 8
  ret i64 %89
}