; Function Attrs: nounwind memory(read, argmem: readwrite) uwtable
define hidden i64 @bn_mul_words(ptr noundef writeonly captures(none) %rp, ptr noundef readonly captures(none) %ap, i32 noundef %num, i64 noundef %w) local_unnamed_addr #1 {
entry:
  %cmp = icmp slt i32 %num, 1
  br i1 %cmp, label %return, label %while.cond.preheader

while.cond.preheader:                             ; preds = %entry
  %tobool.not50 = icmp samesign ult i32 %num, 4
  br i1 %tobool.not50, label %do.body38, label %do.body

do.body:                                          ; preds = %while.cond.preheader, %do.body
  %rp.addr.054 = phi ptr [ %add.ptr35, %do.body ], [ %rp, %while.cond.preheader ]
  %ap.addr.053 = phi ptr [ %add.ptr, %do.body ], [ %ap, %while.cond.preheader ]
  %num.addr.052 = phi i32 [ %sub, %do.body ], [ %num, %while.cond.preheader ]
  %c1.051 = phi i64 [ %asmresult32, %do.body ], [ 0, %while.cond.preheader ]
  %0 = load i64, ptr %ap.addr.053, align 8
  %1 = tail call { i64, i64 } asm "mulq $3", "={ax},={dx},{ax},imr,~{cc},~{dirflag},~{fpsr},~{flags}"(i64 %w, i64 %0) #3, !srcloc !30
  %asmresult = extractvalue { i64, i64 } %1, 0
  %asmresult1 = extractvalue { i64, i64 } %1, 1
  %2 = tail call { i64, i64 } asm "addq $2,$0; adcq $3,$1", "=r,={dx},{ax},imr,0,1,~{cc},~{dirflag},~{fpsr},~{flags}"(i64 %asmresult, i32 0, i64 %c1.051, i64 %asmresult1) #3, !srcloc !31
  %asmresult2 = extractvalue { i64, i64 } %2, 0
  %asmresult3 = extractvalue { i64, i64 } %2, 1
  store i64 %asmresult2, ptr %rp.addr.054, align 8
  %arrayidx8 = getelementptr inbounds nuw i8, ptr %ap.addr.053, i64 8
  %3 = load i64, ptr %arrayidx8, align 8
  %4 = tail call { i64, i64 } asm "mulq $3", "={ax},={dx},{ax},imr,~{cc},~{dirflag},~{fpsr},~{flags}"(i64 %w, i64 %3) #3, !srcloc !32
  %asmresult9 = extractvalue { i64, i64 } %4, 0
  %asmresult10 = extractvalue { i64, i64 } %4, 1
  %5 = tail call { i64, i64 } asm "addq $2,$0; adcq $3,$1", "=r,={dx},{ax},imr,0,1,~{cc},~{dirflag},~{fpsr},~{flags}"(i64 %asmresult9, i32 0, i64 %asmresult3, i64 %asmresult10) #3, !srcloc !33
  %asmresult11 = extractvalue { i64, i64 } %5, 0
  %asmresult12 = extractvalue { i64, i64 } %5, 1
  %arrayidx13 = getelementptr inbounds nuw i8, ptr %rp.addr.054, i64 8
  store i64 %asmresult11, ptr %arrayidx13, align 8
  %arrayidx18 = getelementptr inbounds nuw i8, ptr %ap.addr.053, i64 16
  %6 = load i64, ptr %arrayidx18, align 8
  %7 = tail call { i64, i64 } asm "mulq $3", "={ax},={dx},{ax},imr,~{cc},~{dirflag},~{fpsr},~{flags}"(i64 %w, i64 %6) #3, !srcloc !34
  %asmresult19 = extractvalue { i64, i64 } %7, 0
  %asmresult20 = extractvalue { i64, i64 } %7, 1
  %8 = tail call { i64, i64 } asm "addq $2,$0; adcq $3,$1", "=r,={dx},{ax},imr,0,1,~{cc},~{dirflag},~{fpsr},~{flags}"(i64 %asmresult19, i32 0, i64 %asmresult12, i64 %asmresult20) #3, !srcloc !35
  %asmresult21 = extractvalue { i64, i64 } %8, 0
  %asmresult22 = extractvalue { i64, i64 } %8, 1
  %arrayidx23 = getelementptr inbounds nuw i8, ptr %rp.addr.054, i64 16
  store i64 %asmresult21, ptr %arrayidx23, align 8
  %arrayidx28 = getelementptr inbounds nuw i8, ptr %ap.addr.053, i64 24
  %9 = load i64, ptr %arrayidx28, align 8
  %10 = tail call { i64, i64 } asm "mulq $3", "={ax},={dx},{ax},imr,~{cc},~{dirflag},~{fpsr},~{flags}"(i64 %w, i64 %9) #3, !srcloc !36
  %asmresult29 = extractvalue { i64, i64 } %10, 0
  %asmresult30 = extractvalue { i64, i64 } %10, 1
  %11 = tail call { i64, i64 } asm "addq $2,$0; adcq $3,$1", "=r,={dx},{ax},imr,0,1,~{cc},~{dirflag},~{fpsr},~{flags}"(i64 %asmresult29, i32 0, i64 %asmresult22, i64 %asmresult30) #3, !srcloc !37
  %asmresult31 = extractvalue { i64, i64 } %11, 0
  %asmresult32 = extractvalue { i64, i64 } %11, 1
  %arrayidx33 = getelementptr inbounds nuw i8, ptr %rp.addr.054, i64 24
  store i64 %asmresult31, ptr %arrayidx33, align 8
  %add.ptr = getelementptr inbounds nuw i8, ptr %ap.addr.053, i64 32
  %add.ptr35 = getelementptr inbounds nuw i8, ptr %rp.addr.054, i64 32
  %sub = add nsw i32 %num.addr.052, -4
  %tobool.not = icmp ult i32 %sub, 4
  br i1 %tobool.not, label %while.end, label %do.body, !llvm.loop !38

while.end:                                        ; preds = %do.body
  %tobool36.not = icmp eq i32 %sub, 0
  br i1 %tobool36.not, label %return, label %do.body38

do.body38:                                        ; preds = %while.cond.preheader, %while.end
  %rp.addr.0.lcssa66 = phi ptr [ %add.ptr35, %while.end ], [ %rp, %while.cond.preheader ]
  %ap.addr.0.lcssa65 = phi ptr [ %add.ptr, %while.end ], [ %ap, %while.cond.preheader ]
  %num.addr.0.lcssa64 = phi i32 [ %sub, %while.end ], [ %num, %while.cond.preheader ]
  %c1.0.lcssa63 = phi i64 [ %asmresult32, %while.end ], [ 0, %while.cond.preheader ]
  %12 = load i64, ptr %ap.addr.0.lcssa65, align 8
  %13 = tail call { i64, i64 } asm "mulq $3", "={ax},={dx},{ax},imr,~{cc},~{dirflag},~{fpsr},~{flags}"(i64 %w, i64 %12) #3, !srcloc !39
  %asmresult42 = extractvalue { i64, i64 } %13, 0
  %asmresult43 = extractvalue { i64, i64 } %13, 1
  %14 = tail call { i64, i64 } asm "addq $2,$0; adcq $3,$1", "=r,={dx},{ax},imr,0,1,~{cc},~{dirflag},~{fpsr},~{flags}"(i64 %asmresult42, i32 0, i64 %c1.0.lcssa63, i64 %asmresult43) #3, !srcloc !40
  %asmresult44 = extractvalue { i64, i64 } %14, 0
  %asmresult45 = extractvalue { i64, i64 } %14, 1
  store i64 %asmresult44, ptr %rp.addr.0.lcssa66, align 8
  %cmp48 = icmp eq i32 %num.addr.0.lcssa64, 1
  br i1 %cmp48, label %return, label %do.body51

do.body51:                                        ; preds = %do.body38
  %arrayidx54 = getelementptr inbounds nuw i8, ptr %ap.addr.0.lcssa65, i64 8
  %15 = load i64, ptr %arrayidx54, align 8
  %16 = tail call { i64, i64 } asm "mulq $3", "={ax},={dx},{ax},imr,~{cc},~{dirflag},~{fpsr},~{flags}"(i64 %w, i64 %15) #3, !srcloc !41
  %asmresult55 = extractvalue { i64, i64 } %16, 0
  %asmresult56 = extractvalue { i64, i64 } %16, 1
  %17 = tail call { i64, i64 } asm "addq $2,$0; adcq $3,$1", "=r,={dx},{ax},imr,0,1,~{cc},~{dirflag},~{fpsr},~{flags}"(i64 %asmresult55, i32 0, i64 %asmresult45, i64 %asmresult56) #3, !srcloc !42
  %asmresult57 = extractvalue { i64, i64 } %17, 0
  %asmresult58 = extractvalue { i64, i64 } %17, 1
  %arrayidx59 = getelementptr inbounds nuw i8, ptr %rp.addr.0.lcssa66, i64 8
  store i64 %asmresult57, ptr %arrayidx59, align 8
  %cmp62 = icmp eq i32 %num.addr.0.lcssa64, 2
  br i1 %cmp62, label %return, label %do.body65

do.body65:                                        ; preds = %do.body51
  %arrayidx68 = getelementptr inbounds nuw i8, ptr %ap.addr.0.lcssa65, i64 16
  %18 = load i64, ptr %arrayidx68, align 8
  %19 = tail call { i64, i64 } asm "mulq $3", "={ax},={dx},{ax},imr,~{cc},~{dirflag},~{fpsr},~{flags}"(i64 %w, i64 %18) #3, !srcloc !43
  %asmresult69 = extractvalue { i64, i64 } %19, 0
  %asmresult70 = extractvalue { i64, i64 } %19, 1
  %20 = tail call { i64, i64 } asm "addq $2,$0; adcq $3,$1", "=r,={dx},{ax},imr,0,1,~{cc},~{dirflag},~{fpsr},~{flags}"(i64 %asmresult69, i32 0, i64 %asmresult58, i64 %asmresult70) #3, !srcloc !44
  %asmresult71 = extractvalue { i64, i64 } %20, 0
  %asmresult72 = extractvalue { i64, i64 } %20, 1
  %arrayidx73 = getelementptr inbounds nuw i8, ptr %rp.addr.0.lcssa66, i64 16
  store i64 %asmresult71, ptr %arrayidx73, align 8
  br label %return

return:                                           ; preds = %while.end, %do.body65, %do.body51, %do.body38, %entry
  %retval.0 = phi i64 [ 0, %entry ], [ %asmresult45, %do.body38 ], [ %asmresult58, %do.body51 ], [ %asmresult72, %do.body65 ], [ %asmresult32, %while.end ]
  ret i64 %retval.0
}